; Function Attrs: mustprogress nounwind uwtable
define hidden void @_ZN5ceres12ComposedLossD2Ev(ptr noundef nonnull align 8 captures(none) dereferenceable(32) %0) unnamed_addr #11 align 2 personality ptr @__gxx_personality_v0 {
  %2 = getelementptr inbounds nuw i8, ptr %0, i64 24
  %3 = load i32, ptr %2, align 8, !tbaa !41
  %4 = icmp eq i32 %3, 0
  br i1 %4, label %5, label %7

5:                                                ; preds = %1
  %6 = getelementptr inbounds nuw i8, ptr %0, i64 8
  store ptr null, ptr %6, align 8, !tbaa !39
  br label %7

7:                                                ; preds = %5, %1
  %8 = getelementptr inbounds nuw i8, ptr %0, i64 28
  %9 = load i32, ptr %8, align 4, !tbaa !50
  %10 = icmp eq i32 %9, 0
  %11 = getelementptr inbounds nuw i8, ptr %0, i64 16
  br i1 %10, label %_ZNSt10unique_ptrIKN5ceres12LossFunctionESt14default_deleteIS2_EED2Ev.exit, label %12

12:                                               ; preds = %7
  %.pre = load ptr, ptr %11, align 8, !tbaa !39
  %13 = getelementptr inbounds nuw i8, ptr %0, i64 16
  %.not.i = icmp eq ptr %.pre, null
  br i1 %.not.i, label %_ZNSt10unique_ptrIKN5ceres12LossFunctionESt14default_deleteIS2_EED2Ev.exit, label %_ZNKSt14default_deleteIKN5ceres12LossFunctionEEclEPS2_.exit.i

_ZNKSt14default_deleteIKN5ceres12LossFunctionEEclEPS2_.exit.i: ; preds = %12
  %14 = load ptr, ptr %.pre, align 8, !tbaa !22
  %15 = getelementptr inbounds nuw i8, ptr %14, i64 8
  %16 = load ptr, ptr %15, align 8
  tail call void %16(ptr noundef nonnull align 8 dereferenceable(8) %.pre) #17
  br label %_ZNSt10unique_ptrIKN5ceres12LossFunctionESt14default_deleteIS2_EED2Ev.exit

_ZNSt10unique_ptrIKN5ceres12LossFunctionESt14default_deleteIS2_EED2Ev.exit: ; preds = %7, %12, %_ZNKSt14default_deleteIKN5ceres12LossFunctionEEclEPS2_.exit.i
  %17 = phi ptr [ %13, %12 ], [ %13, %_ZNKSt14default_deleteIKN5ceres12LossFunctionEEclEPS2_.exit.i ], [ %11, %7 ]
  store ptr null, ptr %17, align 8, !tbaa !39
  %18 = getelementptr inbounds nuw i8, ptr %0, i64 8
  %19 = load ptr, ptr %18, align 8, !tbaa !39
  %.not.i1 = icmp eq ptr %19, null
  br i1 %.not.i1, label %_ZNSt10unique_ptrIKN5ceres12LossFunctionESt14default_deleteIS2_EED2Ev.exit3, label %_ZNKSt14default_deleteIKN5ceres12LossFunctionEEclEPS2_.exit.i2

_ZNKSt14default_deleteIKN5ceres12LossFunctionEEclEPS2_.exit.i2: ; preds = %_ZNSt10unique_ptrIKN5ceres12LossFunctionESt14default_deleteIS2_EED2Ev.exit
  %20 = load ptr, ptr %19, align 8, !tbaa !22
  %21 = getelementptr inbounds nuw i8, ptr %20, i64 8
  %22 = load ptr, ptr %21, align 8
  tail call void %22(ptr noundef nonnull align 8 dereferenceable(8) %19) #17
  br label %_ZNSt10unique_ptrIKN5ceres12LossFunctionESt14default_deleteIS2_EED2Ev.exit3

_ZNSt10unique_ptrIKN5ceres12LossFunctionESt14default_deleteIS2_EED2Ev.exit3: ; preds = %_ZNSt10unique_ptrIKN5ceres12LossFunctionESt14default_deleteIS2_EED2Ev.exit, %_ZNKSt14default_deleteIKN5ceres12LossFunctionEEclEPS2_.exit.i2
  store ptr null, ptr %18, align 8, !tbaa !39
  ret void
}